target datalayout = "e-m:e-p270:32:32-p271:32:32-p272:64:64-i64:64-i128:128-f80:128-n8:16:32:64-S128"
target triple = "x86_64-pc-linux-gnu"

%struct.chr_data = type { i64, i8 }

; Function Attrs: nounwind uwtable
define internal i32 @CORD_batched_chr_proc(ptr noundef %0, ptr noundef %1) #0 {
  %3 = alloca i32, align 4
  %4 = alloca ptr, align 8
  %5 = alloca ptr, align 8
  %6 = alloca ptr, align 8
  %7 = alloca ptr, align 8
  %8 = alloca i32, align 4
  store ptr %0, ptr %4, align 8, !tbaa !3
  store ptr %1, ptr %5, align 8, !tbaa !28
  call void @llvm.lifetime.start.p0(i64 8, ptr %6) #9
  %9 = load ptr, ptr %5, align 8, !tbaa !28
  store ptr %9, ptr %6, align 8, !tbaa !28
  call void @llvm.lifetime.start.p0(i64 8, ptr %7) #9
  %10 = load ptr, ptr %4, align 8, !tbaa !3
  %11 = load ptr, ptr %6, align 8, !tbaa !28
  %12 = getelementptr inbounds nuw %struct.chr_data, ptr %11, i32 0, i32 1
  %13 = load i8, ptr %12, align 8, !tbaa !31
  %14 = sext i8 %13 to i32
  %15 = call ptr @strchr(ptr noundef %10, i32 noundef %14) #12
  store ptr %15, ptr %7, align 8, !tbaa !3
  %16 = load ptr, ptr %7, align 8, !tbaa !3
  %17 = icmp eq ptr null, %16
  br i1 %17, label %18, label %25

18:                                               ; preds = %2
  %19 = load ptr, ptr %4, align 8, !tbaa !3
  %20 = call i64 @strlen(ptr noundef %19) #12
  %21 = load ptr, ptr %6, align 8, !tbaa !28
  %22 = getelementptr inbounds nuw %struct.chr_data, ptr %21, i32 0, i32 0
  %23 = load i64, ptr %22, align 8, !tbaa !29
  %24 = add i64 %23, %20
  store i64 %24, ptr %22, align 8, !tbaa !29
  store i32 0, ptr %3, align 4
  store i32 1, ptr %8, align 4
  br label %35

25:                                               ; preds = %2
  %26 = load ptr, ptr %7, align 8, !tbaa !3
  %27 = load ptr, ptr %4, align 8, !tbaa !3
  %28 = ptrtoint ptr %26 to i64
  %29 = ptrtoint ptr %27 to i64
  %30 = sub i64 %28, %29
  %31 = load ptr, ptr %6, align 8, !tbaa !28
  %32 = getelementptr inbounds nuw %struct.chr_data, ptr %31, i32 0, i32 0
  %33 = load i64, ptr %32, align 8, !tbaa !29
  %34 = add i64 %33, %30
  store i64 %34, ptr %32, align 8, !tbaa !29
  store i32 1, ptr %3, align 4
  store i32 1, ptr %8, align 4
  br label %35

35:                                               ; preds = %25, %18
  call void @llvm.lifetime.end.p0(i64 8, ptr %7) #9
  call void @llvm.lifetime.end.p0(i64 8, ptr %6) #9
  %36 = load i32, ptr %3, align 4
  ret i32 %36
}