; Function Attrs: mustprogress nofree nounwind willreturn memory(argmem: readwrite) uwtable
define internal range(i32 0, 2) i32 @CORD_batched_chr_proc(ptr noundef %0, ptr noundef captures(none) %1) #11 {
  %3 = getelementptr inbounds nuw i8, ptr %1, i64 8
  %4 = load i8, ptr %3, align 8, !tbaa !28
  %5 = sext i8 %4 to i32
  %6 = tail call ptr @strchr(ptr noundef nonnull dereferenceable(1) %0, i32 noundef %5) #20
  %7 = icmp eq ptr %6, null
  br i1 %7, label %8, label %12

8:                                                ; preds = %2
  %9 = tail call i64 @strlen(ptr noundef nonnull dereferenceable(1) %0) #20
  %10 = load i64, ptr %1, align 8, !tbaa !26
  %11 = add i64 %10, %9
  br label %18

12:                                               ; preds = %2
  %13 = ptrtoint ptr %6 to i64
  %14 = ptrtoint ptr %0 to i64
  %15 = sub i64 %13, %14
  %16 = load i64, ptr %1, align 8, !tbaa !26
  %17 = add i64 %15, %16
  br label %18

18:                                               ; preds = %12, %8
  %storemerge = phi i64 [ %17, %12 ], [ %11, %8 ]
  %.0 = phi i32 [ 1, %12 ], [ 0, %8 ]
  store i64 %storemerge, ptr %1, align 8, !tbaa !26
  ret i32 %.0
}